; ModuleID = '17/1190.c'
source_filename = "17/1190.c"
target datalayout = "e-m:e-p270:32:32-p271:32:32-p272:64:64-i64:64-f80:128-n8:16:32:64-S128"
target triple = "x86_64-pc-linux-gnu"

%struct._IO_FILE = type { i32, i8*, i8*, i8*, i8*, i8*, i8*, i8*, i8*, i8*, i8*, i8*, %struct._IO_marker*, %struct._IO_FILE*, i32, i32, i64, i16, i8, [1 x i8], i8*, i64, %struct._IO_codecvt*, %struct._IO_wide_data*, %struct._IO_FILE*, i8*, i64, i32, [20 x i8] }
%struct._IO_marker = type opaque
%struct._IO_codecvt = type opaque
%struct._IO_wide_data = type opaque

@.str = private unnamed_addr constant [3 x i8] c"%d\00", align 1
@.str.1 = private unnamed_addr constant [3 x i8] c"%s\00", align 1
@.str.2 = private unnamed_addr constant [2 x i8] c"\0A\00", align 1
@stdin = external dso_local global %struct._IO_FILE*, align 8

; Function Attrs: noinline nounwind uwtable
define dso_local i32 @main() #0 {
  %1 = alloca i32, align 4
  %2 = alloca i32, align 4
  %3 = alloca i32, align 4
  %4 = alloca [500 x i8], align 16
  %5 = alloca [500 x i8], align 16
  %6 = alloca i32, align 4
  store i32 0, i32* %1, align 4
  %7 = bitcast [500 x i8]* %4 to i8*
  call void @llvm.memset.p0i8.i64(i8* align 16 %7, i8 0, i64 500, i1 false)
  %8 = bitcast [500 x i8]* %5 to i8*
  call void @llvm.memset.p0i8.i64(i8* align 16 %8, i8 0, i64 500, i1 false)
  %9 = call i32 (i8*, ...) @__isoc99_scanf(i8* getelementptr inbounds ([3 x i8], [3 x i8]* @.str, i64 0, i64 0), i32* %3)
  br label %10

10:                                               ; preds = %96, %0
  %11 = load i32, i32* %3, align 4
  %12 = add nsw i32 %11, -1
  store i32 %12, i32* %3, align 4
  %13 = icmp ne i32 %11, 0
  br i1 %13, label %14, label %97

14:                                               ; preds = %10
  br label %15

15:                                               ; preds = %88, %14
  %16 = getelementptr inbounds [500 x i8], [500 x i8]* %4, i64 0, i64 0
  %17 = call i32 (i8*, ...) @__isoc99_scanf(i8* getelementptr inbounds ([3 x i8], [3 x i8]* @.str.1, i64 0, i64 0), i8* %16)
  %18 = icmp ne i32 %17, -1
  br i1 %18, label %19, label %96

19:                                               ; preds = %15
  %20 = getelementptr inbounds [500 x i8], [500 x i8]* %4, i64 0, i64 0
  %21 = call i32 (i8*, ...) @printf(i8* getelementptr inbounds ([3 x i8], [3 x i8]* @.str.1, i64 0, i64 0), i8* %20)
  %22 = call i32 (i8*, ...) @printf(i8* getelementptr inbounds ([2 x i8], [2 x i8]* @.str.2, i64 0, i64 0))
  store i32 0, i32* %2, align 4
  br label %23

23:                                               ; preds = %85, %19
  %24 = load i32, i32* %2, align 4
  %25 = sext i32 %24 to i64
  %26 = getelementptr inbounds [500 x i8], [500 x i8]* %4, i64 0, i64 %25
  %27 = load i8, i8* %26, align 1
  %28 = sext i8 %27 to i32
  %29 = icmp ne i32 %28, 0
  br i1 %29, label %30, label %88

30:                                               ; preds = %23
  %31 = load i32, i32* %2, align 4
  %32 = sext i32 %31 to i64
  %33 = getelementptr inbounds [500 x i8], [500 x i8]* %4, i64 0, i64 %32
  %34 = load i8, i8* %33, align 1
  %35 = sext i8 %34 to i32
  %36 = icmp eq i32 %35, 40
  br i1 %36, label %37, label %41

37:                                               ; preds = %30
  %38 = load i32, i32* %2, align 4
  %39 = sext i32 %38 to i64
  %40 = getelementptr inbounds [500 x i8], [500 x i8]* %5, i64 0, i64 %39
  store i8 36, i8* %40, align 1
  br label %85

41:                                               ; preds = %30
  %42 = load i32, i32* %2, align 4
  %43 = sext i32 %42 to i64
  %44 = getelementptr inbounds [500 x i8], [500 x i8]* %4, i64 0, i64 %43
  %45 = load i8, i8* %44, align 1
  %46 = sext i8 %45 to i32
  %47 = icmp eq i32 %46, 41
  br i1 %47, label %48, label %80

48:                                               ; preds = %41
  %49 = load i32, i32* %2, align 4
  %50 = sub nsw i32 %49, 1
  store i32 %50, i32* %6, align 4
  br label %51

51:                                               ; preds = %69, %48
  %52 = load i32, i32* %6, align 4
  %53 = icmp sge i32 %52, 0
  br i1 %53, label %54, label %72

54:                                               ; preds = %51
  %55 = load i32, i32* %6, align 4
  %56 = sext i32 %55 to i64
  %57 = getelementptr inbounds [500 x i8], [500 x i8]* %5, i64 0, i64 %56
  %58 = load i8, i8* %57, align 1
  %59 = sext i8 %58 to i32
  %60 = icmp eq i32 %59, 36
  br i1 %60, label %61, label %68

61:                                               ; preds = %54
  %62 = load i32, i32* %6, align 4
  %63 = sext i32 %62 to i64
  %64 = getelementptr inbounds [500 x i8], [500 x i8]* %5, i64 0, i64 %63
  store i8 32, i8* %64, align 1
  %65 = load i32, i32* %2, align 4
  %66 = sext i32 %65 to i64
  %67 = getelementptr inbounds [500 x i8], [500 x i8]* %5, i64 0, i64 %66
  store i8 32, i8* %67, align 1
  br label %72

68:                                               ; preds = %54
  br label %69

69:                                               ; preds = %68
  %70 = load i32, i32* %6, align 4
  %71 = add nsw i32 %70, -1
  store i32 %71, i32* %6, align 4
  br label %51

72:                                               ; preds = %61, %51
  %73 = load i32, i32* %6, align 4
  %74 = icmp eq i32 %73, -1
  br i1 %74, label %75, label %79

75:                                               ; preds = %72
  %76 = load i32, i32* %2, align 4
  %77 = sext i32 %76 to i64
  %78 = getelementptr inbounds [500 x i8], [500 x i8]* %5, i64 0, i64 %77
  store i8 63, i8* %78, align 1
  br label %79

79:                                               ; preds = %75, %72
  br label %84

80:                                               ; preds = %41
  %81 = load i32, i32* %2, align 4
  %82 = sext i32 %81 to i64
  %83 = getelementptr inbounds [500 x i8], [500 x i8]* %5, i64 0, i64 %82
  store i8 32, i8* %83, align 1
  br label %84

84:                                               ; preds = %80, %79
  br label %85

85:                                               ; preds = %84, %37
  %86 = load i32, i32* %2, align 4
  %87 = add nsw i32 %86, 1
  store i32 %87, i32* %2, align 4
  br label %23

88:                                               ; preds = %23
  %89 = getelementptr inbounds [500 x i8], [500 x i8]* %5, i64 0, i64 0
  %90 = call i32 (i8*, ...) @printf(i8* getelementptr inbounds ([3 x i8], [3 x i8]* @.str.1, i64 0, i64 0), i8* %89)
  %91 = call i32 (i8*, ...) @printf(i8* getelementptr inbounds ([2 x i8], [2 x i8]* @.str.2, i64 0, i64 0))
  %92 = getelementptr inbounds [500 x i8], [500 x i8]* %5, i64 0, i64 0
  call void @llvm.memset.p0i8.i64(i8* align 16 %92, i8 0, i64 500, i1 false)
  %93 = getelementptr inbounds [500 x i8], [500 x i8]* %4, i64 0, i64 0
  call void @llvm.memset.p0i8.i64(i8* align 16 %93, i8 0, i64 500, i1 false)
  %94 = load %struct._IO_FILE*, %struct._IO_FILE** @stdin, align 8
  %95 = call i32 @fflush(%struct._IO_FILE* %94)
  br label %15

96:                                               ; preds = %15
  br label %10

97:                                               ; preds = %10
  ret i32 0
}

; Function Attrs: argmemonly nounwind willreturn
declare void @llvm.memset.p0i8.i64(i8* nocapture writeonly, i8, i64, i1 immarg) #1

declare dso_local i32 @__isoc99_scanf(i8*, ...) #2

declare dso_local i32 @printf(i8*, ...) #2

declare dso_local i32 @fflush(%struct._IO_FILE*) #2


!llvm.module.flags = !{!0}
!llvm.ident = !{!1}

!0 = !{i32 1, !"wchar_size", i32 4}
!1 = !{!"clang version 10.0.0-4ubuntu1 "}
