; ModuleID = 'source-C-CXX/16/1190.c'
source_filename = "source-C-CXX/16/1190.c"
target datalayout = "e-m:e-p270:32:32-p271:32:32-p272:64:64-i64:64-f80:128-n8:16:32:64-S128"
target triple = "x86_64-pc-linux-gnu"

%struct._IO_FILE = type { i32, i8*, i8*, i8*, i8*, i8*, i8*, i8*, i8*, i8*, i8*, i8*, %struct._IO_marker*, %struct._IO_FILE*, i32, i32, i64, i16, i8, [1 x i8], i8*, i64, %struct._IO_codecvt*, %struct._IO_wide_data*, %struct._IO_FILE*, i8*, i64, i32, [20 x i8] }
%struct._IO_marker = type opaque
%struct._IO_codecvt = type opaque
%struct._IO_wide_data = type opaque

@.str = private unnamed_addr constant [3 x i8] c"%d\00", align 1
@.str.1 = private unnamed_addr constant [3 x i8] c"%s\00", align 1
@stdin = external local_unnamed_addr global %struct._IO_FILE*, align 8

; Function Attrs: nofree nounwind sspstrong uwtable
define dso_local i32 @main() local_unnamed_addr #0 {
  %1 = alloca i32, align 4
  %2 = alloca [500 x i8], align 16
  %3 = alloca [500 x i8], align 16
  %4 = bitcast i32* %1 to i8*
  call void @llvm.lifetime.start.p0i8(i64 4, i8* nonnull %4) #5
  %5 = getelementptr inbounds [500 x i8], [500 x i8]* %2, i64 0, i64 0
  call void @llvm.lifetime.start.p0i8(i64 500, i8* nonnull %5) #5
  call void @llvm.memset.p0i8.i64(i8* noundef nonnull align 16 dereferenceable(500) %5, i8 0, i64 500, i1 false)
  %6 = getelementptr inbounds [500 x i8], [500 x i8]* %3, i64 0, i64 0
  call void @llvm.lifetime.start.p0i8(i64 500, i8* nonnull %6) #5
  call void @llvm.memset.p0i8.i64(i8* noundef nonnull align 16 dereferenceable(500) %6, i8 0, i64 500, i1 false)
  %7 = call i32 (i8*, ...) @__isoc99_scanf(i8* getelementptr inbounds ([3 x i8], [3 x i8]* @.str, i64 0, i64 0), i32* nonnull %1)
  %8 = load i32, i32* %1, align 4, !tbaa !5
  %9 = add nsw i32 %8, -1
  store i32 %9, i32* %1, align 4, !tbaa !5
  %10 = icmp eq i32 %8, 0
  br i1 %10, label %48, label %15

11:                                               ; preds = %41, %15
  %12 = load i32, i32* %1, align 4, !tbaa !5
  %13 = add nsw i32 %12, -1
  store i32 %13, i32* %1, align 4, !tbaa !5
  %14 = icmp eq i32 %12, 0
  br i1 %14, label %48, label %15, !llvm.loop !9

15:                                               ; preds = %0, %11
  %16 = call i32 (i8*, ...) @__isoc99_scanf(i8* getelementptr inbounds ([3 x i8], [3 x i8]* @.str.1, i64 0, i64 0), i8* nonnull %5)
  %17 = icmp eq i32 %16, -1
  br i1 %17, label %11, label %18

18:                                               ; preds = %15, %41
  %19 = call i32 (i8*, ...) @printf(i8* nonnull dereferenceable(1) getelementptr inbounds ([3 x i8], [3 x i8]* @.str.1, i64 0, i64 0), i8* nonnull %5)
  %20 = call i32 @putchar(i32 10)
  br label %21

21:                                               ; preds = %37, %18
  %22 = phi i64 [ %40, %37 ], [ 0, %18 ]
  %23 = getelementptr inbounds [500 x i8], [500 x i8]* %2, i64 0, i64 %22
  %24 = load i8, i8* %23, align 1, !tbaa !11
  switch i8 %24, label %36 [
    i8 0, label %41
    i8 40, label %37
    i8 41, label %25
  ]

25:                                               ; preds = %21, %29
  %26 = phi i64 [ %27, %29 ], [ %22, %21 ]
  %27 = add nsw i64 %26, -1
  %28 = icmp sgt i64 %26, 0
  br i1 %28, label %29, label %37

29:                                               ; preds = %25
  %30 = getelementptr inbounds [500 x i8], [500 x i8]* %3, i64 0, i64 %27
  %31 = load i8, i8* %30, align 1, !tbaa !11
  %32 = icmp eq i8 %31, 36
  br i1 %32, label %33, label %25, !llvm.loop !12

33:                                               ; preds = %29
  %34 = and i64 %27, 4294967295
  %35 = getelementptr inbounds [500 x i8], [500 x i8]* %3, i64 0, i64 %34
  store i8 32, i8* %35, align 1, !tbaa !11
  br label %37

36:                                               ; preds = %21
  br label %37

37:                                               ; preds = %25, %21, %33, %36
  %38 = phi i8 [ 32, %33 ], [ 32, %36 ], [ 36, %21 ], [ 63, %25 ]
  %39 = getelementptr inbounds [500 x i8], [500 x i8]* %3, i64 0, i64 %22
  store i8 %38, i8* %39, align 1, !tbaa !11
  %40 = add nuw i64 %22, 1
  br label %21, !llvm.loop !13

41:                                               ; preds = %21
  %42 = call i32 (i8*, ...) @printf(i8* nonnull dereferenceable(1) getelementptr inbounds ([3 x i8], [3 x i8]* @.str.1, i64 0, i64 0), i8* nonnull %6)
  %43 = call i32 @putchar(i32 10)
  call void @llvm.memset.p0i8.i64(i8* noundef nonnull align 16 dereferenceable(500) %6, i8 0, i64 500, i1 false)
  call void @llvm.memset.p0i8.i64(i8* noundef nonnull align 16 dereferenceable(500) %5, i8 0, i64 500, i1 false)
  %44 = load %struct._IO_FILE*, %struct._IO_FILE** @stdin, align 8, !tbaa !14
  %45 = call i32 @fflush(%struct._IO_FILE* %44)
  %46 = call i32 (i8*, ...) @__isoc99_scanf(i8* getelementptr inbounds ([3 x i8], [3 x i8]* @.str.1, i64 0, i64 0), i8* nonnull %5)
  %47 = icmp eq i32 %46, -1
  br i1 %47, label %11, label %18, !llvm.loop !16

48:                                               ; preds = %11, %0
  call void @llvm.lifetime.end.p0i8(i64 500, i8* nonnull %6) #5
  call void @llvm.lifetime.end.p0i8(i64 500, i8* nonnull %5) #5
  call void @llvm.lifetime.end.p0i8(i64 4, i8* nonnull %4) #5
  ret i32 0
}

; Function Attrs: argmemonly mustprogress nofree nosync nounwind willreturn
declare void @llvm.lifetime.start.p0i8(i64 immarg, i8* nocapture) #1

; Function Attrs: argmemonly mustprogress nofree nounwind willreturn writeonly
declare void @llvm.memset.p0i8.i64(i8* nocapture writeonly, i8, i64, i1 immarg) #2

; Function Attrs: nofree nounwind
declare noundef i32 @__isoc99_scanf(i8* nocapture noundef readonly, ...) local_unnamed_addr #3

; Function Attrs: nofree nounwind
declare noundef i32 @printf(i8* nocapture noundef readonly, ...) local_unnamed_addr #3

; Function Attrs: argmemonly mustprogress nofree nosync nounwind willreturn
declare void @llvm.lifetime.end.p0i8(i64 immarg, i8* nocapture) #1

; Function Attrs: nofree nounwind
declare noundef i32 @fflush(%struct._IO_FILE* nocapture noundef) local_unnamed_addr #3

; Function Attrs: nofree nounwind
declare noundef i32 @putchar(i32 noundef) local_unnamed_addr #4


!llvm.module.flags = !{!0, !1, !2, !3}
!llvm.ident = !{!4}

!0 = !{i32 1, !"wchar_size", i32 4}
!1 = !{i32 7, !"PIC Level", i32 2}
!2 = !{i32 7, !"PIE Level", i32 2}
!3 = !{i32 7, !"uwtable", i32 1}
!4 = !{!"clang version 13.0.0"}
!5 = !{!6, !6, i64 0}
!6 = !{!"int", !7, i64 0}
!7 = !{!"omnipotent char", !8, i64 0}
!8 = !{!"Simple C/C++ TBAA"}
!9 = distinct !{!9, !10}
!10 = !{!"llvm.loop.mustprogress"}
!11 = !{!7, !7, i64 0}
!12 = distinct !{!12, !10}
!13 = distinct !{!13, !10}
!14 = !{!15, !15, i64 0}
!15 = !{!"any pointer", !7, i64 0}
!16 = distinct !{!16, !10}
